; Function Attrs: mustprogress uwtable
define void @_ZN6icu_7522CompoundTransliteratorC2ERKNS_13UnicodeStringE15UTransDirectionPNS_13UnicodeFilterER11UParseErrorR10UErrorCode(ptr noundef nonnull align 8 dereferenceable(104) %this, ptr noundef nonnull align 8 dereferenceable(64) %id, i32 noundef %direction, ptr noundef %adoptedFilter, ptr nocapture nonnull readnone align 4 %0, ptr noundef nonnull align 4 dereferenceable(4) %status) unnamed_addr #1 align 2 personality ptr @__gxx_personality_v0 {
entry:
  tail call void @_ZN6icu_7514TransliteratorC2ERKNS_13UnicodeStringEPNS_13UnicodeFilterE(ptr noundef nonnull align 8 dereferenceable(84) %this, ptr noundef nonnull align 8 dereferenceable(64) %id, ptr noundef %adoptedFilter)
  store ptr getelementptr inbounds ({ [21 x ptr] }, ptr @_ZTVN6icu_7522CompoundTransliteratorE, i64 0, i32 0, i64 2), ptr %this, align 8
  %trans = getelementptr inbounds i8, ptr %this, i64 88
  store ptr null, ptr %trans, align 8
  %numAnonymousRBTs = getelementptr inbounds i8, ptr %this, i64 100
  store i32 0, ptr %numAnonymousRBTs, align 4
  invoke void @_ZN6icu_7522CompoundTransliterator4initERKNS_13UnicodeStringE15UTransDirectionaR10UErrorCode(ptr noundef nonnull align 8 dereferenceable(104) %this, ptr noundef nonnull align 8 dereferenceable(64) %id, i32 noundef %direction, i8 noundef signext 1, ptr noundef nonnull align 4 dereferenceable(4) %status)
          to label %invoke.cont unwind label %lpad

invoke.cont:                                      ; preds = %entry
  ret void

lpad:                                             ; preds = %entry
  %1 = landingpad { ptr, i32 }
          cleanup
  tail call void @_ZN6icu_7514TransliteratorD2Ev(ptr noundef nonnull align 8 dereferenceable(84) %this) #13
  resume { ptr, i32 } %1
}